/*
 * SSDT-DMAC.dsl
 * Generated by SystemMaintenance
 * Date: 2026-01-01
 * Motherboard: Gigabyte Z790 GAMING X AX
 * Device Type: Motherboard
 * 
 *
 * NOTE: This is a template. Customize for your hardware.
 * Refer to Dortania guides for implementation details.
 */

[000h 0000   4]                    Signature : "DMAR"    [DMA Remapping table]
[004h 0004   4]                 Table Length : 00000068
[008h 0008   1]                     Revision : 02
[009h 0009   1]                     Checksum : 1E
[00Ah 0010   6]                       Oem ID : "INTEL "
[010h 0016   8]                 Oem Table ID : "EDK2    "
[018h 0024   4]                 Oem Revision : 00000002
[01Ch 0028   4]              Asl Compiler ID : "INTL"
[020h 0032   4]        Asl Compiler Revision : 20200925

[024h 0036   1]           Host Address Width : 26
[025h 0037   1]                        Flags : 01
[026h 0038  10]                     Reserved : 00 00 00 00 00 00 00 00 00 00

[030h 0048   2]                Subtable Type : 0000 [Hardware Unit Definition]
[032h 0050   2]                       Length : 0018

[034h 0052   1]                        Flags : 00
[035h 0053   1]                     Reserved : 00
[036h 0054   2]           PCI Segment Number : 0000
[038h 0056   8]        Register Base Address : 00000000FED90000

[040h 0064   1]            Device Scope Type : 01 [PCI Endpoint Device]
[041h 0065   1]                 Entry Length : 08
[042h 0066   2]                     Reserved : 0000
[044h 0068   1]               Enumeration ID : 00
[045h 0069   1]               PCI Bus Number : 00

[046h 0070   2]                     PCI Path : 02,00


[048h 0072   2]                Subtable Type : 0000 [Hardware Unit Definition]
[04Ah 0074   2]                       Length : 0020

[04Ch 0076   1]                        Flags : 01
[04Dh 0077   1]                     Reserved : 00
[04Eh 0078   2]           PCI Segment Number : 0000
[050h 0080   8]        Register Base Address : 00000000FED91000

[058h 0088   1]            Device Scope Type : 03 [IOAPIC Device]
[059h 0089   1]                 Entry Length : 08
[05Ah 0090   2]                     Reserved : 0000
[05Ch 0092   1]               Enumeration ID : 02
[05Dh 0093   1]               PCI Bus Number : 00

[05Eh 0094   2]                     PCI Path : 1E,07


[060h 0096   1]            Device Scope Type : 04 [Message-capable HPET Device]
[061h 0097   1]                 Entry Length : 08
[062h 0098   2]                     Reserved : 0000
[064h 0100   1]               Enumeration ID : 00
[065h 0101   1]               PCI Bus Number : 00

[066h 0102   2]                     PCI Path : 1E,06


Raw Table Data: Length 104 (0x68)

    0000: 44 4D 41 52 68 00 00 00 02 1E 49 4E 54 45 4C 20  // DMARh.....INTEL 
    0010: 45 44 4B 32 20 20 20 20 02 00 00 00 49 4E 54 4C  // EDK2    ....INTL
    0020: 25 09 20 20 26 01 00 00 00 00 00 00 00 00 00 00  // %.  &...........
    0030: 00 00 18 00 00 00 00 00 00 00 D9 FE 00 00 00 00  // ................
    0040: 01 08 00 00 00 00 02 00 00 00 20 00 01 00 00 00  // .......... .....
    0050: 00 10 D9 FE 00 00 00 00 03 08 00 00 02 00 1E 07  // ................
    0060: 04 08 00 00 00 00 1E 06                          // ........
